target datalayout = "e-m:e-p270:32:32-p271:32:32-p272:64:64-i64:64-i128:128-f80:128-n8:16:32:64-S128"
target triple = "x86_64-pc-linux-gnu"

%class.StatementFor = type { %class.Statement, ptr, ptr, ptr, ptr }
%class.Statement = type { ptr, i32, i32, ptr, ptr }

; Function Attrs: mustprogress nounwind uwtable
define dso_local void @_ZN12StatementForD2Ev(ptr noundef nonnull align 8 dereferenceable(64) %0) unnamed_addr #5 align 2 {
  %2 = alloca ptr, align 8
  store ptr %0, ptr %2, align 8
  %3 = load ptr, ptr %2, align 8
  store ptr getelementptr inbounds ({ [12 x ptr] }, ptr @_ZTV12StatementFor, i32 0, i32 0, i32 2), ptr %3, align 8
  %4 = getelementptr inbounds %class.StatementFor, ptr %3, i32 0, i32 1
  %5 = load ptr, ptr %4, align 8
  %6 = icmp eq ptr %5, null
  br i1 %6, label %11, label %7

7:                                                ; preds = %1
  %8 = load ptr, ptr %5, align 8
  %9 = getelementptr inbounds ptr, ptr %8, i64 1
  %10 = load ptr, ptr %9, align 8
  call void %10(ptr noundef nonnull align 8 dereferenceable(136) %5) #3
  br label %11

11:                                               ; preds = %7, %1
  %12 = getelementptr inbounds %class.StatementFor, ptr %3, i32 0, i32 2
  %13 = load ptr, ptr %12, align 8
  %14 = icmp eq ptr %13, null
  br i1 %14, label %19, label %15

15:                                               ; preds = %11
  %16 = load ptr, ptr %13, align 8
  %17 = getelementptr inbounds ptr, ptr %16, i64 1
  %18 = load ptr, ptr %17, align 8
  call void %18(ptr noundef nonnull align 8 dereferenceable(24) %13) #3
  br label %19

19:                                               ; preds = %15, %11
  %20 = getelementptr inbounds %class.StatementFor, ptr %3, i32 0, i32 3
  %21 = load ptr, ptr %20, align 8
  %22 = icmp eq ptr %21, null
  br i1 %22, label %27, label %23

23:                                               ; preds = %19
  %24 = load ptr, ptr %21, align 8
  %25 = getelementptr inbounds ptr, ptr %24, i64 1
  %26 = load ptr, ptr %25, align 8
  call void %26(ptr noundef nonnull align 8 dereferenceable(136) %21) #3
  br label %27

27:                                               ; preds = %23, %19
  %28 = getelementptr inbounds %class.StatementFor, ptr %3, i32 0, i32 4
  %29 = load ptr, ptr %28, align 8
  %30 = icmp eq ptr %29, null
  br i1 %30, label %35, label %31

31:                                               ; preds = %27
  %32 = load ptr, ptr %29, align 8
  %33 = getelementptr inbounds ptr, ptr %32, i64 1
  %34 = load ptr, ptr %33, align 8
  call void %34(ptr noundef nonnull align 8 dereferenceable(192) %29) #3
  br label %35

35:                                               ; preds = %31, %27
  call void @_ZN9StatementD2Ev(ptr noundef nonnull align 8 dereferenceable(32) %3) #3
  ret void
}